target datalayout = "e-m:e-p270:32:32-p271:32:32-p272:64:64-i64:64-i128:128-f80:128-n8:16:32:64-S128"
target triple = "x86_64-pc-linux-gnu"

%struct._longobject = type { %struct._object, %struct._PyLongValue }
%struct._object = type { %union.anon, ptr }
%union.anon = type { i64 }
%struct._PyLongValue = type { i64, [1 x i32] }
%struct.fileio = type { %struct._object, i32, i8, i8, ptr, ptr, ptr }
%struct.stat = type { i64, i64, i64, i32, i32, i32, i32, i64, i64, i64, i64, %struct.timespec, %struct.timespec, %struct.timespec, [3 x i64] }
%struct.timespec = type { i64, i64 }

@PyExc_ValueError = external global ptr, align 8
@.str.35 = private unnamed_addr constant [29 x i8] c"I/O operation on closed file\00", align 1
@_Py_FalseStruct = external global %struct._longobject, align 8

; Function Attrs: nounwind uwtable
define internal ptr @err_closed() #0 {
  %1 = load ptr, ptr @PyExc_ValueError, align 8, !tbaa !4
  call void @PyErr_SetString(ptr noundef %1, ptr noundef @.str.35)
  ret ptr null
}

; Function Attrs: nounwind uwtable
define internal ptr @_io_FileIO_isatty_impl(ptr noundef %0) #0 {
  %2 = alloca ptr, align 8
  %3 = alloca ptr, align 8
  %4 = alloca i64, align 8
  %5 = alloca i32, align 4
  %6 = alloca ptr, align 8
  store ptr %0, ptr %3, align 8, !tbaa !15
  call void @llvm.lifetime.start.p0(i64 8, ptr %4) #9
  %7 = load ptr, ptr %3, align 8, !tbaa !15
  %8 = getelementptr inbounds nuw %struct.fileio, ptr %7, i32 0, i32 1
  %9 = load i32, ptr %8, align 8, !tbaa !9
  %10 = icmp slt i32 %9, 0
  br i1 %10, label %11, label %13

11:                                               ; preds = %1
  %12 = call ptr @err_closed()
  store ptr %12, ptr %2, align 8
  store i32 1, ptr %5, align 4
  br label %23

13:                                               ; preds = %1
  call void @llvm.lifetime.start.p0(i64 8, ptr %6) #9
  %14 = call ptr @PyEval_SaveThread()
  store ptr %14, ptr %6, align 8, !tbaa !53
  %15 = load ptr, ptr %3, align 8, !tbaa !15
  %16 = getelementptr inbounds nuw %struct.fileio, ptr %15, i32 0, i32 1
  %17 = load i32, ptr %16, align 8, !tbaa !9
  %18 = call i32 @isatty(i32 noundef %17) #9
  %19 = sext i32 %18 to i64
  store i64 %19, ptr %4, align 8, !tbaa !35
  %20 = load ptr, ptr %6, align 8, !tbaa !53
  call void @PyEval_RestoreThread(ptr noundef %20)
  call void @llvm.lifetime.end.p0(i64 8, ptr %6) #9
  %21 = load i64, ptr %4, align 8, !tbaa !35
  %22 = call ptr @PyBool_FromLong(i64 noundef %21)
  store ptr %22, ptr %2, align 8
  store i32 1, ptr %5, align 4
  br label %23

23:                                               ; preds = %13, %11
  call void @llvm.lifetime.end.p0(i64 8, ptr %4) #9
  %24 = load ptr, ptr %2, align 8
  ret ptr %24
}

; Function Attrs: nounwind uwtable
define internal ptr @_io_FileIO_isatty_open_only(ptr noundef %0, ptr noundef %1) #0 {
  %3 = alloca ptr, align 8
  %4 = alloca ptr, align 8
  %5 = alloca ptr, align 8
  %6 = alloca ptr, align 8
  %7 = alloca i32, align 4
  store ptr %0, ptr %4, align 8, !tbaa !4
  store ptr %1, ptr %5, align 8, !tbaa !4
  call void @llvm.lifetime.start.p0(i64 8, ptr %6) #9
  %8 = load ptr, ptr %4, align 8, !tbaa !4
  store ptr %8, ptr %6, align 8, !tbaa !15
  %9 = load ptr, ptr %6, align 8, !tbaa !15
  %10 = getelementptr inbounds nuw %struct.fileio, ptr %9, i32 0, i32 4
  %11 = load ptr, ptr %10, align 8, !tbaa !17
  %12 = icmp ne ptr %11, null
  br i1 %12, label %13, label %22

13:                                               ; preds = %2
  %14 = load ptr, ptr %6, align 8, !tbaa !15
  %15 = getelementptr inbounds nuw %struct.fileio, ptr %14, i32 0, i32 4
  %16 = load ptr, ptr %15, align 8, !tbaa !17
  %17 = getelementptr inbounds nuw %struct.stat, ptr %16, i32 0, i32 3
  %18 = load i32, ptr %17, align 8, !tbaa !45
  %19 = and i32 %18, 61440
  %20 = icmp eq i32 %19, 8192
  br i1 %20, label %22, label %21

21:                                               ; preds = %13
  store ptr @_Py_FalseStruct, ptr %3, align 8
  store i32 1, ptr %7, align 4
  br label %25

22:                                               ; preds = %13, %2
  %23 = load ptr, ptr %6, align 8, !tbaa !15
  %24 = call ptr @_io_FileIO_isatty_impl(ptr noundef %23)
  store ptr %24, ptr %3, align 8
  store i32 1, ptr %7, align 4
  br label %25

25:                                               ; preds = %22, %21
  call void @llvm.lifetime.end.p0(i64 8, ptr %6) #9
  %26 = load ptr, ptr %3, align 8
  ret ptr %26
}