; Function Attrs: nounwind uwtable
define internal ptr @_io_FileIO_isatty_open_only(ptr noundef readonly captures(none) %0, ptr readnone captures(none) %1) #1 {
  %3 = getelementptr inbounds nuw i8, ptr %0, i64 24
  %4 = load ptr, ptr %3, align 8, !tbaa !19
  %.not = icmp eq ptr %4, null
  br i1 %.not, label %10, label %5

5:                                                ; preds = %2
  %6 = getelementptr inbounds nuw i8, ptr %4, i64 24
  %7 = load i32, ptr %6, align 8, !tbaa !45
  %8 = and i32 %7, 61440
  %9 = icmp eq i32 %8, 8192
  br i1 %9, label %10, label %_io_FileIO_isatty_impl.exit

10:                                               ; preds = %5, %2
  %11 = getelementptr inbounds nuw i8, ptr %0, i64 16
  %12 = load i32, ptr %11, align 8, !tbaa !4
  %13 = icmp slt i32 %12, 0
  br i1 %13, label %14, label %16

14:                                               ; preds = %10
  %15 = load ptr, ptr @PyExc_ValueError, align 8, !tbaa !21
  tail call void @PyErr_SetString(ptr noundef %15, ptr noundef nonnull @.str.35) #10
  br label %_io_FileIO_isatty_impl.exit

16:                                               ; preds = %10
  %17 = tail call ptr @PyEval_SaveThread() #10
  %18 = load i32, ptr %11, align 8, !tbaa !4
  %19 = tail call i32 @isatty(i32 noundef %18) #10
  %20 = sext i32 %19 to i64
  tail call void @PyEval_RestoreThread(ptr noundef %17) #10
  %21 = tail call ptr @PyBool_FromLong(i64 noundef %20) #10
  br label %_io_FileIO_isatty_impl.exit

_io_FileIO_isatty_impl.exit:                      ; preds = %16, %14, %5
  %.0 = phi ptr [ @_Py_FalseStruct, %5 ], [ null, %14 ], [ %21, %16 ]
  ret ptr %.0
}